; Function Attrs: mustprogress nounwind uwtable
define hidden noundef ptr @_ZNK12BarrierSetC28store_atER8C2AccessR13C2AccessValue(ptr noundef nonnull align 8 dereferenceable(8) %0, ptr noundef nonnull align 8 dereferenceable(49) %1, ptr noundef nonnull align 8 dereferenceable(16) %2) unnamed_addr #2 align 2 {
  %4 = alloca %class.C2AccessFence, align 8
  call void @_ZN13C2AccessFenceC2ER8C2Access(ptr noundef nonnull align 8 dereferenceable(16) %4, ptr noundef nonnull align 8 dereferenceable(49) %1)
  %5 = load ptr, ptr %0, align 8
  %6 = load ptr, ptr %5, align 8
  call void %6(ptr noundef nonnull align 8 dereferenceable(8) %0, ptr noundef nonnull align 8 dereferenceable(49) %1) #14
  %7 = load ptr, ptr %0, align 8
  %8 = getelementptr inbounds i8, ptr %7, i64 8
  %9 = load ptr, ptr %8, align 8
  %10 = call noundef ptr %9(ptr noundef nonnull align 8 dereferenceable(8) %0, ptr noundef nonnull align 8 dereferenceable(49) %1, ptr noundef nonnull align 8 dereferenceable(16) %2) #14
  call void @_ZN13C2AccessFenceD2Ev(ptr noundef nonnull align 8 dereferenceable(16) %4) #14
  ret ptr %10
}